ARM GAS  /var/folders/s1/w1vq8g2x1hl_3mycxvqn0m9w0000gn/T//cc8aK1wQ.s 			page 1


   1              		.cpu cortex-m4
   2              		.eabi_attribute 27, 1
   3              		.eabi_attribute 28, 1
   4              		.eabi_attribute 20, 1
   5              		.eabi_attribute 21, 1
   6              		.eabi_attribute 23, 3
   7              		.eabi_attribute 24, 1
   8              		.eabi_attribute 25, 1
   9              		.eabi_attribute 26, 1
  10              		.eabi_attribute 30, 1
  11              		.eabi_attribute 34, 1
  12              		.eabi_attribute 18, 4
  13              		.file	"gpio.c"
  14              		.text
  15              	.Ltext0:
  16              		.cfi_sections	.debug_frame
  17              		.section	.text.MX_GPIO_Init,"ax",%progbits
  18              		.align	1
  19              		.global	MX_GPIO_Init
  20              		.arch armv7e-m
  21              		.syntax unified
  22              		.thumb
  23              		.thumb_func
  24              		.fpu fpv4-sp-d16
  26              	MX_GPIO_Init:
  27              	.LFB130:
  28              		.file 1 "Core/Src/gpio.c"
   1:Core/Src/gpio.c **** /**
   2:Core/Src/gpio.c ****   ******************************************************************************
   3:Core/Src/gpio.c ****   * File Name          : gpio.c
   4:Core/Src/gpio.c ****   * Description        : This file provides code for the configuration
   5:Core/Src/gpio.c ****   *                      of all used GPIO pins.
   6:Core/Src/gpio.c ****   ******************************************************************************
   7:Core/Src/gpio.c ****   * @attention
   8:Core/Src/gpio.c ****   *
   9:Core/Src/gpio.c ****   * <h2><center>&copy; Copyright (c) 2020 STMicroelectronics.
  10:Core/Src/gpio.c ****   * All rights reserved.</center></h2>
  11:Core/Src/gpio.c ****   *
  12:Core/Src/gpio.c ****   * This software component is licensed by ST under Ultimate Liberty license
  13:Core/Src/gpio.c ****   * SLA0044, the "License"; You may not use this file except in compliance with
  14:Core/Src/gpio.c ****   * the License. You may obtain a copy of the License at:
  15:Core/Src/gpio.c ****   *                             www.st.com/SLA0044
  16:Core/Src/gpio.c ****   *
  17:Core/Src/gpio.c ****   ******************************************************************************
  18:Core/Src/gpio.c ****   */
  19:Core/Src/gpio.c **** 
  20:Core/Src/gpio.c **** /* Includes ------------------------------------------------------------------*/
  21:Core/Src/gpio.c **** #include "gpio.h"
  22:Core/Src/gpio.c **** /* USER CODE BEGIN 0 */
  23:Core/Src/gpio.c **** 
  24:Core/Src/gpio.c **** /* USER CODE END 0 */
  25:Core/Src/gpio.c **** 
  26:Core/Src/gpio.c **** /*----------------------------------------------------------------------------*/
  27:Core/Src/gpio.c **** /* Configure GPIO                                                             */
  28:Core/Src/gpio.c **** /*----------------------------------------------------------------------------*/
  29:Core/Src/gpio.c **** /* USER CODE BEGIN 1 */
  30:Core/Src/gpio.c **** 
ARM GAS  /var/folders/s1/w1vq8g2x1hl_3mycxvqn0m9w0000gn/T//cc8aK1wQ.s 			page 2


  31:Core/Src/gpio.c **** /* USER CODE END 1 */
  32:Core/Src/gpio.c **** 
  33:Core/Src/gpio.c **** /** Configure pins as
  34:Core/Src/gpio.c ****         * Analog
  35:Core/Src/gpio.c ****         * Input
  36:Core/Src/gpio.c ****         * Output
  37:Core/Src/gpio.c ****         * EVENT_OUT
  38:Core/Src/gpio.c ****         * EXTI
  39:Core/Src/gpio.c ****      PA7   ------> SPI1_MOSI
  40:Core/Src/gpio.c ****      PD8   ------> USART3_TX
  41:Core/Src/gpio.c ****      PD9   ------> USART3_RX
  42:Core/Src/gpio.c **** */
  43:Core/Src/gpio.c **** void MX_GPIO_Init(void)
  44:Core/Src/gpio.c **** {
  29              		.loc 1 44 1 view -0
  30              		.cfi_startproc
  31              		@ args = 0, pretend = 0, frame = 48
  32              		@ frame_needed = 0, uses_anonymous_args = 0
  33 0000 2DE9F047 		push	{r4, r5, r6, r7, r8, r9, r10, lr}
  34              	.LCFI0:
  35              		.cfi_def_cfa_offset 32
  36              		.cfi_offset 4, -32
  37              		.cfi_offset 5, -28
  38              		.cfi_offset 6, -24
  39              		.cfi_offset 7, -20
  40              		.cfi_offset 8, -16
  41              		.cfi_offset 9, -12
  42              		.cfi_offset 10, -8
  43              		.cfi_offset 14, -4
  44 0004 8CB0     		sub	sp, sp, #48
  45              	.LCFI1:
  46              		.cfi_def_cfa_offset 80
  45:Core/Src/gpio.c **** 
  46:Core/Src/gpio.c ****   GPIO_InitTypeDef GPIO_InitStruct = {0};
  47              		.loc 1 46 3 view .LVU1
  48              		.loc 1 46 20 is_stmt 0 view .LVU2
  49 0006 0024     		movs	r4, #0
  50 0008 0794     		str	r4, [sp, #28]
  51 000a 0894     		str	r4, [sp, #32]
  52 000c 0994     		str	r4, [sp, #36]
  53 000e 0A94     		str	r4, [sp, #40]
  54 0010 0B94     		str	r4, [sp, #44]
  47:Core/Src/gpio.c **** 
  48:Core/Src/gpio.c ****   /* GPIO Ports Clock Enable */
  49:Core/Src/gpio.c ****   __HAL_RCC_GPIOC_CLK_ENABLE();
  55              		.loc 1 49 3 is_stmt 1 view .LVU3
  56              	.LBB2:
  57              		.loc 1 49 3 view .LVU4
  58 0012 0194     		str	r4, [sp, #4]
  59              		.loc 1 49 3 view .LVU5
  60 0014 484B     		ldr	r3, .L3
  61 0016 1A6B     		ldr	r2, [r3, #48]
  62 0018 42F00402 		orr	r2, r2, #4
  63 001c 1A63     		str	r2, [r3, #48]
  64              		.loc 1 49 3 view .LVU6
  65 001e 1A6B     		ldr	r2, [r3, #48]
  66 0020 02F00402 		and	r2, r2, #4
ARM GAS  /var/folders/s1/w1vq8g2x1hl_3mycxvqn0m9w0000gn/T//cc8aK1wQ.s 			page 3


  67 0024 0192     		str	r2, [sp, #4]
  68              		.loc 1 49 3 view .LVU7
  69 0026 019A     		ldr	r2, [sp, #4]
  70              	.LBE2:
  71              		.loc 1 49 3 view .LVU8
  50:Core/Src/gpio.c ****   __HAL_RCC_GPIOH_CLK_ENABLE();
  72              		.loc 1 50 3 view .LVU9
  73              	.LBB3:
  74              		.loc 1 50 3 view .LVU10
  75 0028 0294     		str	r4, [sp, #8]
  76              		.loc 1 50 3 view .LVU11
  77 002a 1A6B     		ldr	r2, [r3, #48]
  78 002c 42F08002 		orr	r2, r2, #128
  79 0030 1A63     		str	r2, [r3, #48]
  80              		.loc 1 50 3 view .LVU12
  81 0032 1A6B     		ldr	r2, [r3, #48]
  82 0034 02F08002 		and	r2, r2, #128
  83 0038 0292     		str	r2, [sp, #8]
  84              		.loc 1 50 3 view .LVU13
  85 003a 029A     		ldr	r2, [sp, #8]
  86              	.LBE3:
  87              		.loc 1 50 3 view .LVU14
  51:Core/Src/gpio.c ****   __HAL_RCC_GPIOA_CLK_ENABLE();
  88              		.loc 1 51 3 view .LVU15
  89              	.LBB4:
  90              		.loc 1 51 3 view .LVU16
  91 003c 0394     		str	r4, [sp, #12]
  92              		.loc 1 51 3 view .LVU17
  93 003e 1A6B     		ldr	r2, [r3, #48]
  94 0040 42F00102 		orr	r2, r2, #1
  95 0044 1A63     		str	r2, [r3, #48]
  96              		.loc 1 51 3 view .LVU18
  97 0046 1A6B     		ldr	r2, [r3, #48]
  98 0048 02F00102 		and	r2, r2, #1
  99 004c 0392     		str	r2, [sp, #12]
 100              		.loc 1 51 3 view .LVU19
 101 004e 039A     		ldr	r2, [sp, #12]
 102              	.LBE4:
 103              		.loc 1 51 3 view .LVU20
  52:Core/Src/gpio.c ****   __HAL_RCC_GPIOB_CLK_ENABLE();
 104              		.loc 1 52 3 view .LVU21
 105              	.LBB5:
 106              		.loc 1 52 3 view .LVU22
 107 0050 0494     		str	r4, [sp, #16]
 108              		.loc 1 52 3 view .LVU23
 109 0052 1A6B     		ldr	r2, [r3, #48]
 110 0054 42F00202 		orr	r2, r2, #2
 111 0058 1A63     		str	r2, [r3, #48]
 112              		.loc 1 52 3 view .LVU24
 113 005a 1A6B     		ldr	r2, [r3, #48]
 114 005c 02F00202 		and	r2, r2, #2
 115 0060 0492     		str	r2, [sp, #16]
 116              		.loc 1 52 3 view .LVU25
 117 0062 049A     		ldr	r2, [sp, #16]
 118              	.LBE5:
 119              		.loc 1 52 3 view .LVU26
  53:Core/Src/gpio.c ****   __HAL_RCC_GPIOD_CLK_ENABLE();
ARM GAS  /var/folders/s1/w1vq8g2x1hl_3mycxvqn0m9w0000gn/T//cc8aK1wQ.s 			page 4


 120              		.loc 1 53 3 view .LVU27
 121              	.LBB6:
 122              		.loc 1 53 3 view .LVU28
 123 0064 0594     		str	r4, [sp, #20]
 124              		.loc 1 53 3 view .LVU29
 125 0066 1A6B     		ldr	r2, [r3, #48]
 126 0068 42F00802 		orr	r2, r2, #8
 127 006c 1A63     		str	r2, [r3, #48]
 128              		.loc 1 53 3 view .LVU30
 129 006e 1A6B     		ldr	r2, [r3, #48]
 130 0070 02F00802 		and	r2, r2, #8
 131 0074 0592     		str	r2, [sp, #20]
 132              		.loc 1 53 3 view .LVU31
 133 0076 059A     		ldr	r2, [sp, #20]
 134              	.LBE6:
 135              		.loc 1 53 3 view .LVU32
  54:Core/Src/gpio.c ****   __HAL_RCC_GPIOG_CLK_ENABLE();
 136              		.loc 1 54 3 view .LVU33
 137              	.LBB7:
 138              		.loc 1 54 3 view .LVU34
 139 0078 0694     		str	r4, [sp, #24]
 140              		.loc 1 54 3 view .LVU35
 141 007a 1A6B     		ldr	r2, [r3, #48]
 142 007c 42F04002 		orr	r2, r2, #64
 143 0080 1A63     		str	r2, [r3, #48]
 144              		.loc 1 54 3 view .LVU36
 145 0082 1B6B     		ldr	r3, [r3, #48]
 146 0084 03F04003 		and	r3, r3, #64
 147 0088 0693     		str	r3, [sp, #24]
 148              		.loc 1 54 3 view .LVU37
 149 008a 069B     		ldr	r3, [sp, #24]
 150              	.LBE7:
 151              		.loc 1 54 3 view .LVU38
  55:Core/Src/gpio.c **** 
  56:Core/Src/gpio.c ****   /*Configure GPIO pin Output Level */
  57:Core/Src/gpio.c ****   HAL_GPIO_WritePin(GPIOB, LD1_Pin|LD3_Pin|LD2_Pin, GPIO_PIN_RESET);
 152              		.loc 1 57 3 view .LVU39
 153 008c DFF8C0A0 		ldr	r10, .L3+24
 154 0090 2246     		mov	r2, r4
 155 0092 44F28101 		movw	r1, #16513
 156 0096 5046     		mov	r0, r10
 157 0098 FFF7FEFF 		bl	HAL_GPIO_WritePin
 158              	.LVL0:
  58:Core/Src/gpio.c **** 
  59:Core/Src/gpio.c ****   /*Configure GPIO pin Output Level */
  60:Core/Src/gpio.c ****   HAL_GPIO_WritePin(USB_PowerSwitchOn_GPIO_Port, USB_PowerSwitchOn_Pin, GPIO_PIN_RESET);
 159              		.loc 1 60 3 view .LVU40
 160 009c 274D     		ldr	r5, .L3+4
 161 009e 2246     		mov	r2, r4
 162 00a0 4021     		movs	r1, #64
 163 00a2 2846     		mov	r0, r5
 164 00a4 FFF7FEFF 		bl	HAL_GPIO_WritePin
 165              	.LVL1:
  61:Core/Src/gpio.c **** 
  62:Core/Src/gpio.c ****   /*Configure GPIO pin : PtPin */
  63:Core/Src/gpio.c ****   GPIO_InitStruct.Pin = USER_Btn_Pin;
 166              		.loc 1 63 3 view .LVU41
ARM GAS  /var/folders/s1/w1vq8g2x1hl_3mycxvqn0m9w0000gn/T//cc8aK1wQ.s 			page 5


 167              		.loc 1 63 23 is_stmt 0 view .LVU42
 168 00a8 4FF40053 		mov	r3, #8192
 169 00ac 0793     		str	r3, [sp, #28]
  64:Core/Src/gpio.c ****   GPIO_InitStruct.Mode = GPIO_MODE_IT_RISING;
 170              		.loc 1 64 3 is_stmt 1 view .LVU43
 171              		.loc 1 64 24 is_stmt 0 view .LVU44
 172 00ae 244B     		ldr	r3, .L3+8
 173 00b0 0893     		str	r3, [sp, #32]
  65:Core/Src/gpio.c ****   GPIO_InitStruct.Pull = GPIO_NOPULL;
 174              		.loc 1 65 3 is_stmt 1 view .LVU45
 175              		.loc 1 65 24 is_stmt 0 view .LVU46
 176 00b2 0994     		str	r4, [sp, #36]
  66:Core/Src/gpio.c ****   HAL_GPIO_Init(USER_Btn_GPIO_Port, &GPIO_InitStruct);
 177              		.loc 1 66 3 is_stmt 1 view .LVU47
 178 00b4 07A9     		add	r1, sp, #28
 179 00b6 2348     		ldr	r0, .L3+12
 180 00b8 FFF7FEFF 		bl	HAL_GPIO_Init
 181              	.LVL2:
  67:Core/Src/gpio.c **** 
  68:Core/Src/gpio.c ****   /*Configure GPIO pin : PA7 */
  69:Core/Src/gpio.c ****   GPIO_InitStruct.Pin = GPIO_PIN_7;
 182              		.loc 1 69 3 view .LVU48
 183              		.loc 1 69 23 is_stmt 0 view .LVU49
 184 00bc 8026     		movs	r6, #128
 185 00be 0796     		str	r6, [sp, #28]
  70:Core/Src/gpio.c ****   GPIO_InitStruct.Mode = GPIO_MODE_AF_PP;
 186              		.loc 1 70 3 is_stmt 1 view .LVU50
 187              		.loc 1 70 24 is_stmt 0 view .LVU51
 188 00c0 4FF00209 		mov	r9, #2
 189 00c4 CDF82090 		str	r9, [sp, #32]
  71:Core/Src/gpio.c ****   GPIO_InitStruct.Pull = GPIO_NOPULL;
 190              		.loc 1 71 3 is_stmt 1 view .LVU52
 191              		.loc 1 71 24 is_stmt 0 view .LVU53
 192 00c8 0994     		str	r4, [sp, #36]
  72:Core/Src/gpio.c ****   GPIO_InitStruct.Speed = GPIO_SPEED_FREQ_VERY_HIGH;
 193              		.loc 1 72 3 is_stmt 1 view .LVU54
 194              		.loc 1 72 25 is_stmt 0 view .LVU55
 195 00ca 4FF00308 		mov	r8, #3
 196 00ce CDF82880 		str	r8, [sp, #40]
  73:Core/Src/gpio.c ****   GPIO_InitStruct.Alternate = GPIO_AF5_SPI1;
 197              		.loc 1 73 3 is_stmt 1 view .LVU56
 198              		.loc 1 73 29 is_stmt 0 view .LVU57
 199 00d2 0523     		movs	r3, #5
 200 00d4 0B93     		str	r3, [sp, #44]
  74:Core/Src/gpio.c ****   HAL_GPIO_Init(GPIOA, &GPIO_InitStruct);
 201              		.loc 1 74 3 is_stmt 1 view .LVU58
 202 00d6 07A9     		add	r1, sp, #28
 203 00d8 1B48     		ldr	r0, .L3+16
 204 00da FFF7FEFF 		bl	HAL_GPIO_Init
 205              	.LVL3:
  75:Core/Src/gpio.c **** 
  76:Core/Src/gpio.c ****   /*Configure GPIO pins : PBPin PBPin PBPin */
  77:Core/Src/gpio.c ****   GPIO_InitStruct.Pin = LD1_Pin|LD3_Pin|LD2_Pin;
 206              		.loc 1 77 3 view .LVU59
 207              		.loc 1 77 23 is_stmt 0 view .LVU60
 208 00de 44F28103 		movw	r3, #16513
 209 00e2 0793     		str	r3, [sp, #28]
ARM GAS  /var/folders/s1/w1vq8g2x1hl_3mycxvqn0m9w0000gn/T//cc8aK1wQ.s 			page 6


  78:Core/Src/gpio.c ****   GPIO_InitStruct.Mode = GPIO_MODE_OUTPUT_PP;
 210              		.loc 1 78 3 is_stmt 1 view .LVU61
 211              		.loc 1 78 24 is_stmt 0 view .LVU62
 212 00e4 0127     		movs	r7, #1
 213 00e6 0897     		str	r7, [sp, #32]
  79:Core/Src/gpio.c ****   GPIO_InitStruct.Pull = GPIO_NOPULL;
 214              		.loc 1 79 3 is_stmt 1 view .LVU63
 215              		.loc 1 79 24 is_stmt 0 view .LVU64
 216 00e8 0994     		str	r4, [sp, #36]
  80:Core/Src/gpio.c ****   GPIO_InitStruct.Speed = GPIO_SPEED_FREQ_LOW;
 217              		.loc 1 80 3 is_stmt 1 view .LVU65
 218              		.loc 1 80 25 is_stmt 0 view .LVU66
 219 00ea 0A94     		str	r4, [sp, #40]
  81:Core/Src/gpio.c ****   HAL_GPIO_Init(GPIOB, &GPIO_InitStruct);
 220              		.loc 1 81 3 is_stmt 1 view .LVU67
 221 00ec 07A9     		add	r1, sp, #28
 222 00ee 5046     		mov	r0, r10
 223 00f0 FFF7FEFF 		bl	HAL_GPIO_Init
 224              	.LVL4:
  82:Core/Src/gpio.c **** 
  83:Core/Src/gpio.c ****   /*Configure GPIO pins : PDPin PDPin */
  84:Core/Src/gpio.c ****   GPIO_InitStruct.Pin = STLK_RX_Pin|STLK_TX_Pin;
 225              		.loc 1 84 3 view .LVU68
 226              		.loc 1 84 23 is_stmt 0 view .LVU69
 227 00f4 4FF44073 		mov	r3, #768
 228 00f8 0793     		str	r3, [sp, #28]
  85:Core/Src/gpio.c ****   GPIO_InitStruct.Mode = GPIO_MODE_AF_PP;
 229              		.loc 1 85 3 is_stmt 1 view .LVU70
 230              		.loc 1 85 24 is_stmt 0 view .LVU71
 231 00fa CDF82090 		str	r9, [sp, #32]
  86:Core/Src/gpio.c ****   GPIO_InitStruct.Pull = GPIO_NOPULL;
 232              		.loc 1 86 3 is_stmt 1 view .LVU72
 233              		.loc 1 86 24 is_stmt 0 view .LVU73
 234 00fe 0994     		str	r4, [sp, #36]
  87:Core/Src/gpio.c ****   GPIO_InitStruct.Speed = GPIO_SPEED_FREQ_VERY_HIGH;
 235              		.loc 1 87 3 is_stmt 1 view .LVU74
 236              		.loc 1 87 25 is_stmt 0 view .LVU75
 237 0100 CDF82880 		str	r8, [sp, #40]
  88:Core/Src/gpio.c ****   GPIO_InitStruct.Alternate = GPIO_AF7_USART3;
 238              		.loc 1 88 3 is_stmt 1 view .LVU76
 239              		.loc 1 88 29 is_stmt 0 view .LVU77
 240 0104 0723     		movs	r3, #7
 241 0106 0B93     		str	r3, [sp, #44]
  89:Core/Src/gpio.c ****   HAL_GPIO_Init(GPIOD, &GPIO_InitStruct);
 242              		.loc 1 89 3 is_stmt 1 view .LVU78
 243 0108 07A9     		add	r1, sp, #28
 244 010a 1048     		ldr	r0, .L3+20
 245 010c FFF7FEFF 		bl	HAL_GPIO_Init
 246              	.LVL5:
  90:Core/Src/gpio.c **** 
  91:Core/Src/gpio.c ****   /*Configure GPIO pin : PtPin */
  92:Core/Src/gpio.c ****   GPIO_InitStruct.Pin = USB_PowerSwitchOn_Pin;
 247              		.loc 1 92 3 view .LVU79
 248              		.loc 1 92 23 is_stmt 0 view .LVU80
 249 0110 4023     		movs	r3, #64
 250 0112 0793     		str	r3, [sp, #28]
  93:Core/Src/gpio.c ****   GPIO_InitStruct.Mode = GPIO_MODE_OUTPUT_PP;
ARM GAS  /var/folders/s1/w1vq8g2x1hl_3mycxvqn0m9w0000gn/T//cc8aK1wQ.s 			page 7


 251              		.loc 1 93 3 is_stmt 1 view .LVU81
 252              		.loc 1 93 24 is_stmt 0 view .LVU82
 253 0114 0897     		str	r7, [sp, #32]
  94:Core/Src/gpio.c ****   GPIO_InitStruct.Pull = GPIO_NOPULL;
 254              		.loc 1 94 3 is_stmt 1 view .LVU83
 255              		.loc 1 94 24 is_stmt 0 view .LVU84
 256 0116 0994     		str	r4, [sp, #36]
  95:Core/Src/gpio.c ****   GPIO_InitStruct.Speed = GPIO_SPEED_FREQ_LOW;
 257              		.loc 1 95 3 is_stmt 1 view .LVU85
 258              		.loc 1 95 25 is_stmt 0 view .LVU86
 259 0118 0A94     		str	r4, [sp, #40]
  96:Core/Src/gpio.c ****   HAL_GPIO_Init(USB_PowerSwitchOn_GPIO_Port, &GPIO_InitStruct);
 260              		.loc 1 96 3 is_stmt 1 view .LVU87
 261 011a 07A9     		add	r1, sp, #28
 262 011c 2846     		mov	r0, r5
 263 011e FFF7FEFF 		bl	HAL_GPIO_Init
 264              	.LVL6:
  97:Core/Src/gpio.c **** 
  98:Core/Src/gpio.c ****   /*Configure GPIO pin : PtPin */
  99:Core/Src/gpio.c ****   GPIO_InitStruct.Pin = USB_OverCurrent_Pin;
 265              		.loc 1 99 3 view .LVU88
 266              		.loc 1 99 23 is_stmt 0 view .LVU89
 267 0122 0796     		str	r6, [sp, #28]
 100:Core/Src/gpio.c ****   GPIO_InitStruct.Mode = GPIO_MODE_INPUT;
 268              		.loc 1 100 3 is_stmt 1 view .LVU90
 269              		.loc 1 100 24 is_stmt 0 view .LVU91
 270 0124 0894     		str	r4, [sp, #32]
 101:Core/Src/gpio.c ****   GPIO_InitStruct.Pull = GPIO_NOPULL;
 271              		.loc 1 101 3 is_stmt 1 view .LVU92
 272              		.loc 1 101 24 is_stmt 0 view .LVU93
 273 0126 0994     		str	r4, [sp, #36]
 102:Core/Src/gpio.c ****   HAL_GPIO_Init(USB_OverCurrent_GPIO_Port, &GPIO_InitStruct);
 274              		.loc 1 102 3 is_stmt 1 view .LVU94
 275 0128 07A9     		add	r1, sp, #28
 276 012a 2846     		mov	r0, r5
 277 012c FFF7FEFF 		bl	HAL_GPIO_Init
 278              	.LVL7:
 103:Core/Src/gpio.c **** 
 104:Core/Src/gpio.c **** }
 279              		.loc 1 104 1 is_stmt 0 view .LVU95
 280 0130 0CB0     		add	sp, sp, #48
 281              	.LCFI2:
 282              		.cfi_def_cfa_offset 32
 283              		@ sp needed
 284 0132 BDE8F087 		pop	{r4, r5, r6, r7, r8, r9, r10, pc}
 285              	.L4:
 286 0136 00BF     		.align	2
 287              	.L3:
 288 0138 00380240 		.word	1073887232
 289 013c 00180240 		.word	1073879040
 290 0140 00001110 		.word	269549568
 291 0144 00080240 		.word	1073874944
 292 0148 00000240 		.word	1073872896
 293 014c 000C0240 		.word	1073875968
 294 0150 00040240 		.word	1073873920
 295              		.cfi_endproc
 296              	.LFE130:
ARM GAS  /var/folders/s1/w1vq8g2x1hl_3mycxvqn0m9w0000gn/T//cc8aK1wQ.s 			page 8


 298              		.text
 299              	.Letext0:
 300              		.file 2 "/usr/local/Cellar/arm-none-eabi-gcc/9-2019-q4-major/gcc/arm-none-eabi/include/machine/_de
 301              		.file 3 "/usr/local/Cellar/arm-none-eabi-gcc/9-2019-q4-major/gcc/arm-none-eabi/include/sys/_stdint
 302              		.file 4 "Drivers/CMSIS/Include/core_cm4.h"
 303              		.file 5 "Drivers/CMSIS/Device/ST/STM32F4xx/Include/system_stm32f4xx.h"
 304              		.file 6 "Drivers/CMSIS/Device/ST/STM32F4xx/Include/stm32f412zx.h"
 305              		.file 7 "Drivers/STM32F4xx_HAL_Driver/Inc/stm32f4xx_hal_gpio.h"
 306              		.file 8 "Drivers/STM32F4xx_HAL_Driver/Inc/stm32f4xx_hal.h"
ARM GAS  /var/folders/s1/w1vq8g2x1hl_3mycxvqn0m9w0000gn/T//cc8aK1wQ.s 			page 9

