ARM GAS  /var/folders/s1/w1vq8g2x1hl_3mycxvqn0m9w0000gn/T//ccprHx1v.s 			page 1


   1              		.cpu cortex-m4
   2              		.eabi_attribute 27, 1
   3              		.eabi_attribute 28, 1
   4              		.eabi_attribute 20, 1
   5              		.eabi_attribute 21, 1
   6              		.eabi_attribute 23, 3
   7              		.eabi_attribute 24, 1
   8              		.eabi_attribute 25, 1
   9              		.eabi_attribute 26, 1
  10              		.eabi_attribute 30, 1
  11              		.eabi_attribute 34, 1
  12              		.eabi_attribute 18, 4
  13              		.file	"spi.c"
  14              		.text
  15              	.Ltext0:
  16              		.cfi_sections	.debug_frame
  17              		.section	.text.MX_SPI1_Init,"ax",%progbits
  18              		.align	1
  19              		.global	MX_SPI1_Init
  20              		.arch armv7e-m
  21              		.syntax unified
  22              		.thumb
  23              		.thumb_func
  24              		.fpu fpv4-sp-d16
  26              	MX_SPI1_Init:
  27              	.LFB130:
  28              		.file 1 "Core/Src/spi.c"
   1:Core/Src/spi.c **** /**
   2:Core/Src/spi.c ****   ******************************************************************************
   3:Core/Src/spi.c ****   * File Name          : SPI.c
   4:Core/Src/spi.c ****   * Description        : This file provides code for the configuration
   5:Core/Src/spi.c ****   *                      of the SPI instances.
   6:Core/Src/spi.c ****   ******************************************************************************
   7:Core/Src/spi.c ****   * @attention
   8:Core/Src/spi.c ****   *
   9:Core/Src/spi.c ****   * <h2><center>&copy; Copyright (c) 2020 STMicroelectronics.
  10:Core/Src/spi.c ****   * All rights reserved.</center></h2>
  11:Core/Src/spi.c ****   *
  12:Core/Src/spi.c ****   * This software component is licensed by ST under Ultimate Liberty license
  13:Core/Src/spi.c ****   * SLA0044, the "License"; You may not use this file except in compliance with
  14:Core/Src/spi.c ****   * the License. You may obtain a copy of the License at:
  15:Core/Src/spi.c ****   *                             www.st.com/SLA0044
  16:Core/Src/spi.c ****   *
  17:Core/Src/spi.c ****   ******************************************************************************
  18:Core/Src/spi.c ****   */
  19:Core/Src/spi.c **** 
  20:Core/Src/spi.c **** /* Includes ------------------------------------------------------------------*/
  21:Core/Src/spi.c **** #include "spi.h"
  22:Core/Src/spi.c **** 
  23:Core/Src/spi.c **** /* USER CODE BEGIN 0 */
  24:Core/Src/spi.c **** 
  25:Core/Src/spi.c **** /* USER CODE END 0 */
  26:Core/Src/spi.c **** 
  27:Core/Src/spi.c **** SPI_HandleTypeDef hspi1;
  28:Core/Src/spi.c **** DMA_HandleTypeDef hdma_spi1_tx;
  29:Core/Src/spi.c **** 
  30:Core/Src/spi.c **** /* SPI1 init function */
ARM GAS  /var/folders/s1/w1vq8g2x1hl_3mycxvqn0m9w0000gn/T//ccprHx1v.s 			page 2


  31:Core/Src/spi.c **** void MX_SPI1_Init(void)
  32:Core/Src/spi.c **** {
  29              		.loc 1 32 1 view -0
  30              		.cfi_startproc
  31              		@ args = 0, pretend = 0, frame = 0
  32              		@ frame_needed = 0, uses_anonymous_args = 0
  33 0000 08B5     		push	{r3, lr}
  34              	.LCFI0:
  35              		.cfi_def_cfa_offset 8
  36              		.cfi_offset 3, -8
  37              		.cfi_offset 14, -4
  33:Core/Src/spi.c **** 
  34:Core/Src/spi.c ****   hspi1.Instance = SPI1;
  38              		.loc 1 34 3 view .LVU1
  39              		.loc 1 34 18 is_stmt 0 view .LVU2
  40 0002 0E48     		ldr	r0, .L5
  41 0004 0E4B     		ldr	r3, .L5+4
  42 0006 0360     		str	r3, [r0]
  35:Core/Src/spi.c ****   hspi1.Init.Mode = SPI_MODE_MASTER;
  43              		.loc 1 35 3 is_stmt 1 view .LVU3
  44              		.loc 1 35 19 is_stmt 0 view .LVU4
  45 0008 4FF48273 		mov	r3, #260
  46 000c 4360     		str	r3, [r0, #4]
  36:Core/Src/spi.c ****   hspi1.Init.Direction = SPI_DIRECTION_2LINES;
  47              		.loc 1 36 3 is_stmt 1 view .LVU5
  48              		.loc 1 36 24 is_stmt 0 view .LVU6
  49 000e 0023     		movs	r3, #0
  50 0010 8360     		str	r3, [r0, #8]
  37:Core/Src/spi.c ****   hspi1.Init.DataSize = SPI_DATASIZE_8BIT;
  51              		.loc 1 37 3 is_stmt 1 view .LVU7
  52              		.loc 1 37 23 is_stmt 0 view .LVU8
  53 0012 C360     		str	r3, [r0, #12]
  38:Core/Src/spi.c ****   hspi1.Init.CLKPolarity = SPI_POLARITY_LOW;
  54              		.loc 1 38 3 is_stmt 1 view .LVU9
  55              		.loc 1 38 26 is_stmt 0 view .LVU10
  56 0014 0361     		str	r3, [r0, #16]
  39:Core/Src/spi.c ****   hspi1.Init.CLKPhase = SPI_PHASE_1EDGE;
  57              		.loc 1 39 3 is_stmt 1 view .LVU11
  58              		.loc 1 39 23 is_stmt 0 view .LVU12
  59 0016 4361     		str	r3, [r0, #20]
  40:Core/Src/spi.c ****   hspi1.Init.NSS = SPI_NSS_SOFT;
  60              		.loc 1 40 3 is_stmt 1 view .LVU13
  61              		.loc 1 40 18 is_stmt 0 view .LVU14
  62 0018 4FF40072 		mov	r2, #512
  63 001c 8261     		str	r2, [r0, #24]
  41:Core/Src/spi.c ****   hspi1.Init.BaudRatePrescaler = SPI_BAUDRATEPRESCALER_8;
  64              		.loc 1 41 3 is_stmt 1 view .LVU15
  65              		.loc 1 41 32 is_stmt 0 view .LVU16
  66 001e 1022     		movs	r2, #16
  67 0020 C261     		str	r2, [r0, #28]
  42:Core/Src/spi.c ****   hspi1.Init.FirstBit = SPI_FIRSTBIT_MSB;
  68              		.loc 1 42 3 is_stmt 1 view .LVU17
  69              		.loc 1 42 23 is_stmt 0 view .LVU18
  70 0022 0362     		str	r3, [r0, #32]
  43:Core/Src/spi.c ****   hspi1.Init.TIMode = SPI_TIMODE_DISABLE;
  71              		.loc 1 43 3 is_stmt 1 view .LVU19
  72              		.loc 1 43 21 is_stmt 0 view .LVU20
ARM GAS  /var/folders/s1/w1vq8g2x1hl_3mycxvqn0m9w0000gn/T//ccprHx1v.s 			page 3


  73 0024 4362     		str	r3, [r0, #36]
  44:Core/Src/spi.c ****   hspi1.Init.CRCCalculation = SPI_CRCCALCULATION_DISABLE;
  74              		.loc 1 44 3 is_stmt 1 view .LVU21
  75              		.loc 1 44 29 is_stmt 0 view .LVU22
  76 0026 8362     		str	r3, [r0, #40]
  45:Core/Src/spi.c ****   hspi1.Init.CRCPolynomial = 10;
  77              		.loc 1 45 3 is_stmt 1 view .LVU23
  78              		.loc 1 45 28 is_stmt 0 view .LVU24
  79 0028 0A23     		movs	r3, #10
  80 002a C362     		str	r3, [r0, #44]
  46:Core/Src/spi.c ****   if (HAL_SPI_Init(&hspi1) != HAL_OK)
  81              		.loc 1 46 3 is_stmt 1 view .LVU25
  82              		.loc 1 46 7 is_stmt 0 view .LVU26
  83 002c FFF7FEFF 		bl	HAL_SPI_Init
  84              	.LVL0:
  85              		.loc 1 46 6 view .LVU27
  86 0030 00B9     		cbnz	r0, .L4
  87              	.L1:
  47:Core/Src/spi.c ****   {
  48:Core/Src/spi.c ****     Error_Handler();
  49:Core/Src/spi.c ****   }
  50:Core/Src/spi.c **** 
  51:Core/Src/spi.c **** }
  88              		.loc 1 51 1 view .LVU28
  89 0032 08BD     		pop	{r3, pc}
  90              	.L4:
  48:Core/Src/spi.c ****   }
  91              		.loc 1 48 5 is_stmt 1 view .LVU29
  92 0034 FFF7FEFF 		bl	Error_Handler
  93              	.LVL1:
  94              		.loc 1 51 1 is_stmt 0 view .LVU30
  95 0038 FBE7     		b	.L1
  96              	.L6:
  97 003a 00BF     		.align	2
  98              	.L5:
  99 003c 00000000 		.word	hspi1
 100 0040 00300140 		.word	1073819648
 101              		.cfi_endproc
 102              	.LFE130:
 104              		.section	.text.HAL_SPI_MspInit,"ax",%progbits
 105              		.align	1
 106              		.global	HAL_SPI_MspInit
 107              		.syntax unified
 108              		.thumb
 109              		.thumb_func
 110              		.fpu fpv4-sp-d16
 112              	HAL_SPI_MspInit:
 113              	.LVL2:
 114              	.LFB131:
  52:Core/Src/spi.c **** 
  53:Core/Src/spi.c **** void HAL_SPI_MspInit(SPI_HandleTypeDef* spiHandle)
  54:Core/Src/spi.c **** {
 115              		.loc 1 54 1 is_stmt 1 view -0
 116              		.cfi_startproc
 117              		@ args = 0, pretend = 0, frame = 32
 118              		@ frame_needed = 0, uses_anonymous_args = 0
 119              		.loc 1 54 1 is_stmt 0 view .LVU32
ARM GAS  /var/folders/s1/w1vq8g2x1hl_3mycxvqn0m9w0000gn/T//ccprHx1v.s 			page 4


 120 0000 30B5     		push	{r4, r5, lr}
 121              	.LCFI1:
 122              		.cfi_def_cfa_offset 12
 123              		.cfi_offset 4, -12
 124              		.cfi_offset 5, -8
 125              		.cfi_offset 14, -4
 126 0002 89B0     		sub	sp, sp, #36
 127              	.LCFI2:
 128              		.cfi_def_cfa_offset 48
  55:Core/Src/spi.c **** 
  56:Core/Src/spi.c ****   GPIO_InitTypeDef GPIO_InitStruct = {0};
 129              		.loc 1 56 3 is_stmt 1 view .LVU33
 130              		.loc 1 56 20 is_stmt 0 view .LVU34
 131 0004 0023     		movs	r3, #0
 132 0006 0393     		str	r3, [sp, #12]
 133 0008 0493     		str	r3, [sp, #16]
 134 000a 0593     		str	r3, [sp, #20]
 135 000c 0693     		str	r3, [sp, #24]
 136 000e 0793     		str	r3, [sp, #28]
  57:Core/Src/spi.c ****   if(spiHandle->Instance==SPI1)
 137              		.loc 1 57 3 is_stmt 1 view .LVU35
 138              		.loc 1 57 15 is_stmt 0 view .LVU36
 139 0010 0268     		ldr	r2, [r0]
 140              		.loc 1 57 5 view .LVU37
 141 0012 234B     		ldr	r3, .L13
 142 0014 9A42     		cmp	r2, r3
 143 0016 01D0     		beq	.L11
 144              	.LVL3:
 145              	.L7:
  58:Core/Src/spi.c ****   {
  59:Core/Src/spi.c ****   /* USER CODE BEGIN SPI1_MspInit 0 */
  60:Core/Src/spi.c **** 
  61:Core/Src/spi.c ****   /* USER CODE END SPI1_MspInit 0 */
  62:Core/Src/spi.c ****     /* SPI1 clock enable */
  63:Core/Src/spi.c ****     __HAL_RCC_SPI1_CLK_ENABLE();
  64:Core/Src/spi.c **** 
  65:Core/Src/spi.c ****     __HAL_RCC_GPIOA_CLK_ENABLE();
  66:Core/Src/spi.c ****     /**SPI1 GPIO Configuration
  67:Core/Src/spi.c ****     PA5     ------> SPI1_SCK
  68:Core/Src/spi.c ****     PA7     ------> SPI1_MOSI
  69:Core/Src/spi.c ****     */
  70:Core/Src/spi.c ****     GPIO_InitStruct.Pin = GPIO_PIN_5|GPIO_PIN_7;
  71:Core/Src/spi.c ****     GPIO_InitStruct.Mode = GPIO_MODE_AF_PP;
  72:Core/Src/spi.c ****     GPIO_InitStruct.Pull = GPIO_NOPULL;
  73:Core/Src/spi.c ****     GPIO_InitStruct.Speed = GPIO_SPEED_FREQ_VERY_HIGH;
  74:Core/Src/spi.c ****     GPIO_InitStruct.Alternate = GPIO_AF5_SPI1;
  75:Core/Src/spi.c ****     HAL_GPIO_Init(GPIOA, &GPIO_InitStruct);
  76:Core/Src/spi.c **** 
  77:Core/Src/spi.c ****     /* SPI1 DMA Init */
  78:Core/Src/spi.c ****     /* SPI1_TX Init */
  79:Core/Src/spi.c ****     hdma_spi1_tx.Instance = DMA2_Stream2;
  80:Core/Src/spi.c ****     hdma_spi1_tx.Init.Channel = DMA_CHANNEL_2;
  81:Core/Src/spi.c ****     hdma_spi1_tx.Init.Direction = DMA_MEMORY_TO_PERIPH;
  82:Core/Src/spi.c ****     hdma_spi1_tx.Init.PeriphInc = DMA_PINC_DISABLE;
  83:Core/Src/spi.c ****     hdma_spi1_tx.Init.MemInc = DMA_MINC_ENABLE;
  84:Core/Src/spi.c ****     hdma_spi1_tx.Init.PeriphDataAlignment = DMA_PDATAALIGN_BYTE;
  85:Core/Src/spi.c ****     hdma_spi1_tx.Init.MemDataAlignment = DMA_MDATAALIGN_BYTE;
ARM GAS  /var/folders/s1/w1vq8g2x1hl_3mycxvqn0m9w0000gn/T//ccprHx1v.s 			page 5


  86:Core/Src/spi.c ****     hdma_spi1_tx.Init.Mode = DMA_CIRCULAR;
  87:Core/Src/spi.c ****     hdma_spi1_tx.Init.Priority = DMA_PRIORITY_LOW;
  88:Core/Src/spi.c ****     hdma_spi1_tx.Init.FIFOMode = DMA_FIFOMODE_DISABLE;
  89:Core/Src/spi.c ****     if (HAL_DMA_Init(&hdma_spi1_tx) != HAL_OK)
  90:Core/Src/spi.c ****     {
  91:Core/Src/spi.c ****       Error_Handler();
  92:Core/Src/spi.c ****     }
  93:Core/Src/spi.c **** 
  94:Core/Src/spi.c ****     __HAL_LINKDMA(spiHandle,hdmatx,hdma_spi1_tx);
  95:Core/Src/spi.c **** 
  96:Core/Src/spi.c ****   /* USER CODE BEGIN SPI1_MspInit 1 */
  97:Core/Src/spi.c **** 
  98:Core/Src/spi.c ****   /* USER CODE END SPI1_MspInit 1 */
  99:Core/Src/spi.c ****   }
 100:Core/Src/spi.c **** }
 146              		.loc 1 100 1 view .LVU38
 147 0018 09B0     		add	sp, sp, #36
 148              	.LCFI3:
 149              		.cfi_remember_state
 150              		.cfi_def_cfa_offset 12
 151              		@ sp needed
 152 001a 30BD     		pop	{r4, r5, pc}
 153              	.LVL4:
 154              	.L11:
 155              	.LCFI4:
 156              		.cfi_restore_state
 157              		.loc 1 100 1 view .LVU39
 158 001c 0446     		mov	r4, r0
  63:Core/Src/spi.c **** 
 159              		.loc 1 63 5 is_stmt 1 view .LVU40
 160              	.LBB2:
  63:Core/Src/spi.c **** 
 161              		.loc 1 63 5 view .LVU41
 162 001e 0025     		movs	r5, #0
 163 0020 0195     		str	r5, [sp, #4]
  63:Core/Src/spi.c **** 
 164              		.loc 1 63 5 view .LVU42
 165 0022 03F58433 		add	r3, r3, #67584
 166 0026 5A6C     		ldr	r2, [r3, #68]
 167 0028 42F48052 		orr	r2, r2, #4096
 168 002c 5A64     		str	r2, [r3, #68]
  63:Core/Src/spi.c **** 
 169              		.loc 1 63 5 view .LVU43
 170 002e 5A6C     		ldr	r2, [r3, #68]
 171 0030 02F48052 		and	r2, r2, #4096
 172 0034 0192     		str	r2, [sp, #4]
  63:Core/Src/spi.c **** 
 173              		.loc 1 63 5 view .LVU44
 174 0036 019A     		ldr	r2, [sp, #4]
 175              	.LBE2:
  63:Core/Src/spi.c **** 
 176              		.loc 1 63 5 view .LVU45
  65:Core/Src/spi.c ****     /**SPI1 GPIO Configuration
 177              		.loc 1 65 5 view .LVU46
 178              	.LBB3:
  65:Core/Src/spi.c ****     /**SPI1 GPIO Configuration
 179              		.loc 1 65 5 view .LVU47
ARM GAS  /var/folders/s1/w1vq8g2x1hl_3mycxvqn0m9w0000gn/T//ccprHx1v.s 			page 6


 180 0038 0295     		str	r5, [sp, #8]
  65:Core/Src/spi.c ****     /**SPI1 GPIO Configuration
 181              		.loc 1 65 5 view .LVU48
 182 003a 1A6B     		ldr	r2, [r3, #48]
 183 003c 42F00102 		orr	r2, r2, #1
 184 0040 1A63     		str	r2, [r3, #48]
  65:Core/Src/spi.c ****     /**SPI1 GPIO Configuration
 185              		.loc 1 65 5 view .LVU49
 186 0042 1B6B     		ldr	r3, [r3, #48]
 187 0044 03F00103 		and	r3, r3, #1
 188 0048 0293     		str	r3, [sp, #8]
  65:Core/Src/spi.c ****     /**SPI1 GPIO Configuration
 189              		.loc 1 65 5 view .LVU50
 190 004a 029B     		ldr	r3, [sp, #8]
 191              	.LBE3:
  65:Core/Src/spi.c ****     /**SPI1 GPIO Configuration
 192              		.loc 1 65 5 view .LVU51
  70:Core/Src/spi.c ****     GPIO_InitStruct.Mode = GPIO_MODE_AF_PP;
 193              		.loc 1 70 5 view .LVU52
  70:Core/Src/spi.c ****     GPIO_InitStruct.Mode = GPIO_MODE_AF_PP;
 194              		.loc 1 70 25 is_stmt 0 view .LVU53
 195 004c A023     		movs	r3, #160
 196 004e 0393     		str	r3, [sp, #12]
  71:Core/Src/spi.c ****     GPIO_InitStruct.Pull = GPIO_NOPULL;
 197              		.loc 1 71 5 is_stmt 1 view .LVU54
  71:Core/Src/spi.c ****     GPIO_InitStruct.Pull = GPIO_NOPULL;
 198              		.loc 1 71 26 is_stmt 0 view .LVU55
 199 0050 0223     		movs	r3, #2
 200 0052 0493     		str	r3, [sp, #16]
  72:Core/Src/spi.c ****     GPIO_InitStruct.Speed = GPIO_SPEED_FREQ_VERY_HIGH;
 201              		.loc 1 72 5 is_stmt 1 view .LVU56
  72:Core/Src/spi.c ****     GPIO_InitStruct.Speed = GPIO_SPEED_FREQ_VERY_HIGH;
 202              		.loc 1 72 26 is_stmt 0 view .LVU57
 203 0054 0595     		str	r5, [sp, #20]
  73:Core/Src/spi.c ****     GPIO_InitStruct.Alternate = GPIO_AF5_SPI1;
 204              		.loc 1 73 5 is_stmt 1 view .LVU58
  73:Core/Src/spi.c ****     GPIO_InitStruct.Alternate = GPIO_AF5_SPI1;
 205              		.loc 1 73 27 is_stmt 0 view .LVU59
 206 0056 0323     		movs	r3, #3
 207 0058 0693     		str	r3, [sp, #24]
  74:Core/Src/spi.c ****     HAL_GPIO_Init(GPIOA, &GPIO_InitStruct);
 208              		.loc 1 74 5 is_stmt 1 view .LVU60
  74:Core/Src/spi.c ****     HAL_GPIO_Init(GPIOA, &GPIO_InitStruct);
 209              		.loc 1 74 31 is_stmt 0 view .LVU61
 210 005a 0523     		movs	r3, #5
 211 005c 0793     		str	r3, [sp, #28]
  75:Core/Src/spi.c **** 
 212              		.loc 1 75 5 is_stmt 1 view .LVU62
 213 005e 03A9     		add	r1, sp, #12
 214 0060 1048     		ldr	r0, .L13+4
 215              	.LVL5:
  75:Core/Src/spi.c **** 
 216              		.loc 1 75 5 is_stmt 0 view .LVU63
 217 0062 FFF7FEFF 		bl	HAL_GPIO_Init
 218              	.LVL6:
  79:Core/Src/spi.c ****     hdma_spi1_tx.Init.Channel = DMA_CHANNEL_2;
 219              		.loc 1 79 5 is_stmt 1 view .LVU64
ARM GAS  /var/folders/s1/w1vq8g2x1hl_3mycxvqn0m9w0000gn/T//ccprHx1v.s 			page 7


  79:Core/Src/spi.c ****     hdma_spi1_tx.Init.Channel = DMA_CHANNEL_2;
 220              		.loc 1 79 27 is_stmt 0 view .LVU65
 221 0066 1048     		ldr	r0, .L13+8
 222 0068 104B     		ldr	r3, .L13+12
 223 006a 0360     		str	r3, [r0]
  80:Core/Src/spi.c ****     hdma_spi1_tx.Init.Direction = DMA_MEMORY_TO_PERIPH;
 224              		.loc 1 80 5 is_stmt 1 view .LVU66
  80:Core/Src/spi.c ****     hdma_spi1_tx.Init.Direction = DMA_MEMORY_TO_PERIPH;
 225              		.loc 1 80 31 is_stmt 0 view .LVU67
 226 006c 4FF08063 		mov	r3, #67108864
 227 0070 4360     		str	r3, [r0, #4]
  81:Core/Src/spi.c ****     hdma_spi1_tx.Init.PeriphInc = DMA_PINC_DISABLE;
 228              		.loc 1 81 5 is_stmt 1 view .LVU68
  81:Core/Src/spi.c ****     hdma_spi1_tx.Init.PeriphInc = DMA_PINC_DISABLE;
 229              		.loc 1 81 33 is_stmt 0 view .LVU69
 230 0072 4023     		movs	r3, #64
 231 0074 8360     		str	r3, [r0, #8]
  82:Core/Src/spi.c ****     hdma_spi1_tx.Init.MemInc = DMA_MINC_ENABLE;
 232              		.loc 1 82 5 is_stmt 1 view .LVU70
  82:Core/Src/spi.c ****     hdma_spi1_tx.Init.MemInc = DMA_MINC_ENABLE;
 233              		.loc 1 82 33 is_stmt 0 view .LVU71
 234 0076 C560     		str	r5, [r0, #12]
  83:Core/Src/spi.c ****     hdma_spi1_tx.Init.PeriphDataAlignment = DMA_PDATAALIGN_BYTE;
 235              		.loc 1 83 5 is_stmt 1 view .LVU72
  83:Core/Src/spi.c ****     hdma_spi1_tx.Init.PeriphDataAlignment = DMA_PDATAALIGN_BYTE;
 236              		.loc 1 83 30 is_stmt 0 view .LVU73
 237 0078 4FF48063 		mov	r3, #1024
 238 007c 0361     		str	r3, [r0, #16]
  84:Core/Src/spi.c ****     hdma_spi1_tx.Init.MemDataAlignment = DMA_MDATAALIGN_BYTE;
 239              		.loc 1 84 5 is_stmt 1 view .LVU74
  84:Core/Src/spi.c ****     hdma_spi1_tx.Init.MemDataAlignment = DMA_MDATAALIGN_BYTE;
 240              		.loc 1 84 43 is_stmt 0 view .LVU75
 241 007e 4561     		str	r5, [r0, #20]
  85:Core/Src/spi.c ****     hdma_spi1_tx.Init.Mode = DMA_CIRCULAR;
 242              		.loc 1 85 5 is_stmt 1 view .LVU76
  85:Core/Src/spi.c ****     hdma_spi1_tx.Init.Mode = DMA_CIRCULAR;
 243              		.loc 1 85 40 is_stmt 0 view .LVU77
 244 0080 8561     		str	r5, [r0, #24]
  86:Core/Src/spi.c ****     hdma_spi1_tx.Init.Priority = DMA_PRIORITY_LOW;
 245              		.loc 1 86 5 is_stmt 1 view .LVU78
  86:Core/Src/spi.c ****     hdma_spi1_tx.Init.Priority = DMA_PRIORITY_LOW;
 246              		.loc 1 86 28 is_stmt 0 view .LVU79
 247 0082 4FF48073 		mov	r3, #256
 248 0086 C361     		str	r3, [r0, #28]
  87:Core/Src/spi.c ****     hdma_spi1_tx.Init.FIFOMode = DMA_FIFOMODE_DISABLE;
 249              		.loc 1 87 5 is_stmt 1 view .LVU80
  87:Core/Src/spi.c ****     hdma_spi1_tx.Init.FIFOMode = DMA_FIFOMODE_DISABLE;
 250              		.loc 1 87 32 is_stmt 0 view .LVU81
 251 0088 0562     		str	r5, [r0, #32]
  88:Core/Src/spi.c ****     if (HAL_DMA_Init(&hdma_spi1_tx) != HAL_OK)
 252              		.loc 1 88 5 is_stmt 1 view .LVU82
  88:Core/Src/spi.c ****     if (HAL_DMA_Init(&hdma_spi1_tx) != HAL_OK)
 253              		.loc 1 88 32 is_stmt 0 view .LVU83
 254 008a 4562     		str	r5, [r0, #36]
  89:Core/Src/spi.c ****     {
 255              		.loc 1 89 5 is_stmt 1 view .LVU84
  89:Core/Src/spi.c ****     {
ARM GAS  /var/folders/s1/w1vq8g2x1hl_3mycxvqn0m9w0000gn/T//ccprHx1v.s 			page 8


 256              		.loc 1 89 9 is_stmt 0 view .LVU85
 257 008c FFF7FEFF 		bl	HAL_DMA_Init
 258              	.LVL7:
  89:Core/Src/spi.c ****     {
 259              		.loc 1 89 8 view .LVU86
 260 0090 18B9     		cbnz	r0, .L12
 261              	.L9:
  94:Core/Src/spi.c **** 
 262              		.loc 1 94 5 is_stmt 1 view .LVU87
  94:Core/Src/spi.c **** 
 263              		.loc 1 94 5 view .LVU88
 264 0092 054B     		ldr	r3, .L13+8
 265 0094 A364     		str	r3, [r4, #72]
  94:Core/Src/spi.c **** 
 266              		.loc 1 94 5 view .LVU89
 267 0096 9C63     		str	r4, [r3, #56]
  94:Core/Src/spi.c **** 
 268              		.loc 1 94 5 view .LVU90
 269              		.loc 1 100 1 is_stmt 0 view .LVU91
 270 0098 BEE7     		b	.L7
 271              	.L12:
  91:Core/Src/spi.c ****     }
 272              		.loc 1 91 7 is_stmt 1 view .LVU92
 273 009a FFF7FEFF 		bl	Error_Handler
 274              	.LVL8:
 275 009e F8E7     		b	.L9
 276              	.L14:
 277              		.align	2
 278              	.L13:
 279 00a0 00300140 		.word	1073819648
 280 00a4 00000240 		.word	1073872896
 281 00a8 00000000 		.word	hdma_spi1_tx
 282 00ac 40640240 		.word	1073898560
 283              		.cfi_endproc
 284              	.LFE131:
 286              		.section	.text.HAL_SPI_MspDeInit,"ax",%progbits
 287              		.align	1
 288              		.global	HAL_SPI_MspDeInit
 289              		.syntax unified
 290              		.thumb
 291              		.thumb_func
 292              		.fpu fpv4-sp-d16
 294              	HAL_SPI_MspDeInit:
 295              	.LVL9:
 296              	.LFB132:
 101:Core/Src/spi.c **** 
 102:Core/Src/spi.c **** void HAL_SPI_MspDeInit(SPI_HandleTypeDef* spiHandle)
 103:Core/Src/spi.c **** {
 297              		.loc 1 103 1 view -0
 298              		.cfi_startproc
 299              		@ args = 0, pretend = 0, frame = 0
 300              		@ frame_needed = 0, uses_anonymous_args = 0
 104:Core/Src/spi.c **** 
 105:Core/Src/spi.c ****   if(spiHandle->Instance==SPI1)
 301              		.loc 1 105 3 view .LVU94
 302              		.loc 1 105 15 is_stmt 0 view .LVU95
 303 0000 0268     		ldr	r2, [r0]
ARM GAS  /var/folders/s1/w1vq8g2x1hl_3mycxvqn0m9w0000gn/T//ccprHx1v.s 			page 9


 304              		.loc 1 105 5 view .LVU96
 305 0002 094B     		ldr	r3, .L22
 306 0004 9A42     		cmp	r2, r3
 307 0006 00D0     		beq	.L21
 308 0008 7047     		bx	lr
 309              	.L21:
 103:Core/Src/spi.c **** 
 310              		.loc 1 103 1 view .LVU97
 311 000a 10B5     		push	{r4, lr}
 312              	.LCFI5:
 313              		.cfi_def_cfa_offset 8
 314              		.cfi_offset 4, -8
 315              		.cfi_offset 14, -4
 316 000c 0446     		mov	r4, r0
 106:Core/Src/spi.c ****   {
 107:Core/Src/spi.c ****   /* USER CODE BEGIN SPI1_MspDeInit 0 */
 108:Core/Src/spi.c **** 
 109:Core/Src/spi.c ****   /* USER CODE END SPI1_MspDeInit 0 */
 110:Core/Src/spi.c ****     /* Peripheral clock disable */
 111:Core/Src/spi.c ****     __HAL_RCC_SPI1_CLK_DISABLE();
 317              		.loc 1 111 5 is_stmt 1 view .LVU98
 318 000e 074A     		ldr	r2, .L22+4
 319 0010 536C     		ldr	r3, [r2, #68]
 320 0012 23F48053 		bic	r3, r3, #4096
 321 0016 5364     		str	r3, [r2, #68]
 112:Core/Src/spi.c **** 
 113:Core/Src/spi.c ****     /**SPI1 GPIO Configuration
 114:Core/Src/spi.c ****     PA5     ------> SPI1_SCK
 115:Core/Src/spi.c ****     PA7     ------> SPI1_MOSI
 116:Core/Src/spi.c ****     */
 117:Core/Src/spi.c ****     HAL_GPIO_DeInit(GPIOA, GPIO_PIN_5|GPIO_PIN_7);
 322              		.loc 1 117 5 view .LVU99
 323 0018 A021     		movs	r1, #160
 324 001a 0548     		ldr	r0, .L22+8
 325              	.LVL10:
 326              		.loc 1 117 5 is_stmt 0 view .LVU100
 327 001c FFF7FEFF 		bl	HAL_GPIO_DeInit
 328              	.LVL11:
 118:Core/Src/spi.c **** 
 119:Core/Src/spi.c ****     /* SPI1 DMA DeInit */
 120:Core/Src/spi.c ****     HAL_DMA_DeInit(spiHandle->hdmatx);
 329              		.loc 1 120 5 is_stmt 1 view .LVU101
 330 0020 A06C     		ldr	r0, [r4, #72]
 331 0022 FFF7FEFF 		bl	HAL_DMA_DeInit
 332              	.LVL12:
 121:Core/Src/spi.c ****   /* USER CODE BEGIN SPI1_MspDeInit 1 */
 122:Core/Src/spi.c **** 
 123:Core/Src/spi.c ****   /* USER CODE END SPI1_MspDeInit 1 */
 124:Core/Src/spi.c ****   }
 125:Core/Src/spi.c **** }
 333              		.loc 1 125 1 is_stmt 0 view .LVU102
 334 0026 10BD     		pop	{r4, pc}
 335              	.LVL13:
 336              	.L23:
 337              		.loc 1 125 1 view .LVU103
 338              		.align	2
 339              	.L22:
ARM GAS  /var/folders/s1/w1vq8g2x1hl_3mycxvqn0m9w0000gn/T//ccprHx1v.s 			page 10


 340 0028 00300140 		.word	1073819648
 341 002c 00380240 		.word	1073887232
 342 0030 00000240 		.word	1073872896
 343              		.cfi_endproc
 344              	.LFE132:
 346              		.comm	hdma_spi1_tx,96,4
 347              		.comm	hspi1,88,4
 348              		.text
 349              	.Letext0:
 350              		.file 2 "/usr/local/Cellar/arm-none-eabi-gcc/9-2019-q4-major/gcc/arm-none-eabi/include/machine/_de
 351              		.file 3 "/usr/local/Cellar/arm-none-eabi-gcc/9-2019-q4-major/gcc/arm-none-eabi/include/sys/_stdint
 352              		.file 4 "Drivers/CMSIS/Include/core_cm4.h"
 353              		.file 5 "Drivers/CMSIS/Device/ST/STM32F4xx/Include/system_stm32f4xx.h"
 354              		.file 6 "Drivers/CMSIS/Device/ST/STM32F4xx/Include/stm32f412zx.h"
 355              		.file 7 "Drivers/STM32F4xx_HAL_Driver/Inc/stm32f4xx_hal_def.h"
 356              		.file 8 "Drivers/STM32F4xx_HAL_Driver/Inc/stm32f4xx_hal_gpio.h"
 357              		.file 9 "Drivers/STM32F4xx_HAL_Driver/Inc/stm32f4xx_hal_dma.h"
 358              		.file 10 "Drivers/STM32F4xx_HAL_Driver/Inc/stm32f4xx_hal_spi.h"
 359              		.file 11 "Drivers/STM32F4xx_HAL_Driver/Inc/stm32f4xx_hal.h"
 360              		.file 12 "Core/Inc/spi.h"
 361              		.file 13 "Core/Inc/main.h"
ARM GAS  /var/folders/s1/w1vq8g2x1hl_3mycxvqn0m9w0000gn/T//ccprHx1v.s 			page 11

